; Function Attrs: mustprogress uwtable
define void @_ZN6casadi6Nlpsol15get_sparsity_inEx(ptr dead_on_unwind noalias writable sret(%"class.casadi::Sparsity") align 8 %0, ptr noundef nonnull align 8 dereferenceable(1928) %1, i64 noundef %2) unnamed_addr #3 align 2 {
  %4 = trunc i64 %2 to i32
  switch i32 %4, label %16 [
    i32 0, label %5
    i32 2, label %5
    i32 3, label %5
    i32 6, label %5
    i32 4, label %9
    i32 5, label %9
    i32 7, label %9
    i32 1, label %13
  ]

5:                                                ; preds = %3, %3, %3, %3
  %6 = load ptr, ptr %1, align 8
  %7 = getelementptr inbounds i8, ptr %6, i64 784
  %8 = load ptr, ptr %7, align 8
  tail call void %8(ptr dead_on_unwind writable sret(%"class.casadi::Sparsity") align 8 %0, ptr noundef nonnull align 8 dereferenceable(1928) %1, i64 noundef 0)
  br label %17

9:                                                ; preds = %3, %3, %3
  %10 = load ptr, ptr %1, align 8
  %11 = getelementptr inbounds i8, ptr %10, i64 784
  %12 = load ptr, ptr %11, align 8
  tail call void %12(ptr dead_on_unwind writable sret(%"class.casadi::Sparsity") align 8 %0, ptr noundef nonnull align 8 dereferenceable(1928) %1, i64 noundef 2)
  br label %17

13:                                               ; preds = %3
  %14 = getelementptr inbounds i8, ptr %1, i64 1304
  %15 = tail call noundef nonnull align 8 dereferenceable(8) ptr @_ZNK6casadi8Function11sparsity_inEx(ptr noundef nonnull align 8 dereferenceable(8) %14, i64 noundef 1)
  tail call void @_ZN6casadi12SharedObjectC2ERKS0_(ptr noundef nonnull align 8 dereferenceable(8) %0, ptr noundef nonnull align 8 dereferenceable(8) %15)
  br label %17

16:                                               ; preds = %3
  tail call void @_ZN6casadi8SparsityC1Ex(ptr noundef nonnull align 8 dereferenceable(8) %0, i64 noundef 0)
  br label %17

17:                                               ; preds = %16, %13, %9, %5
  ret void
}